Certificate:
    Data:
        Version: 1 (0x0)
        Serial Number: 0 (0x0)
    Signature Algorithm: ecdsa-with-SHA256
        Issuer: C=US, CN=Test Intermediate CA
        Validity
            Not Before: Nov  2 15:19:21 2020 GMT
            Not After : Nov  2 15:19:21 2021 GMT
        Subject: C=US, CN=Test Leaf
        Subject Public Key Info:
            Public Key Algorithm: id-ecPublicKey
                Public-Key: (256 bit)
                pub: 
                    04:e7:85:f5:7f:d8:7b:73:cc:a8:de:68:95:3e:2f:
                    0e:1b:b9:7a:4b:2d:46:8d:76:18:80:7e:f1:af:0d:
                    bd:1e:c2:0c:8a:e8:e4:02:81:50:ec:4c:f2:d9:58:
                    f9:2f:f4:5e:5e:30:93:23:b5:07:b1:30:15:fe:72:
                    26:24:ef:e1:76
                ASN1 OID: prime256v1
                NIST CURVE: P-256
    Signature Algorithm: ecdsa-with-SHA256
         30:45:02:20:39:31:98:48:d8:be:92:9b:52:8e:35:21:f9:07:
         a7:2c:98:8c:2f:a7:d6:6a:d2:2f:90:59:22:2c:9d:99:44:6d:
         02:21:00:b0:21:32:34:34:72:9c:2f:fb:3b:23:d9:a7:42:7a:
         f5:24:fb:91:25:06:11:7d:29:2d:84:04:71:d8:0e:45:98
-----BEGIN CERTIFICATE-----
MIIBNDCB2wIBADAKBggqhkjOPQQDAjAsMQswCQYDVQQGEwJVUzEdMBsGA1UEAwwU
VGVzdCBJbnRlcm1lZGlhdGUgQ0EwHhcNMjAxMTAyMTUxOTIxWhcNMjExMTAyMTUx
OTIxWjAhMQswCQYDVQQGEwJVUzESMBAGA1UEAwwJVGVzdCBMZWFmMFkwEwYHKoZI
zj0CAQYIKoZIzj0DAQcDQgAE54X1f9h7c8yo3miVPi8OG7l6Sy1GjXYYgH7xrw29
HsIMiujkAoFQ7Ezy2Vj5L/ReXjCTI7UHsTAV/nImJO/hdjAKBggqhkjOPQQDAgNI
ADBFAiA5MZhI2L6Sm1KONSH5B6csmIwvp9Zq0i+QWSIsnZlEbQIhALAhMjQ0cpwv
+zsj2adCevUk+5ElBhF9KS2EBHHYDkWY
-----END CERTIFICATE-----
