Certificate:
    Data:
        Version: 1 (0x0)
        Serial Number: 1 (0x1)
    Signature Algorithm: ecdsa-with-SHA256
        Issuer: C=US, CN=Test Intermediate CA
        Validity
            Not Before: Nov  2 15:25:19 2020 GMT
            Not After : Nov  2 15:25:19 2021 GMT
        Subject: C=US, CN=Test Leaf
        Subject Public Key Info:
            Public Key Algorithm: id-ecPublicKey
                Public-Key: (256 bit)
                pub: 
                    04:94:13:ef:04:b6:a7:fd:e5:de:10:c6:ae:a1:98:
                    d3:2c:ff:92:7f:2f:5c:25:e5:51:69:70:cc:53:7d:
                    62:11:15:e9:a8:e1:7d:e9:2e:05:28:45:0c:a7:3c:
                    95:47:d7:5a:3e:0d:89:a7:42:87:3d:19:3d:91:cd:
                    3b:ee:fd:96:42
                ASN1 OID: prime256v1
                NIST CURVE: P-256
    Signature Algorithm: ecdsa-with-SHA256
         30:46:02:21:00:cd:94:c2:bf:ff:d1:de:0e:06:11:b8:ec:d8:
         62:9b:c8:20:b0:d3:ad:e8:a4:0b:02:38:98:0d:b2:1a:12:6b:
         88:02:21:00:ca:3c:79:3b:53:a0:88:aa:b9:6c:87:97:b6:68:
         c1:f2:01:e9:60:19:26:04:66:14:ba:66:7c:6b:7c:a1:24:2b
-----BEGIN CERTIFICATE-----
MIIBNTCB2wIBATAKBggqhkjOPQQDAjAsMQswCQYDVQQGEwJVUzEdMBsGA1UEAwwU
VGVzdCBJbnRlcm1lZGlhdGUgQ0EwHhcNMjAxMTAyMTUyNTE5WhcNMjExMTAyMTUy
NTE5WjAhMQswCQYDVQQGEwJVUzESMBAGA1UEAwwJVGVzdCBMZWFmMFkwEwYHKoZI
zj0CAQYIKoZIzj0DAQcDQgAElBPvBLan/eXeEMauoZjTLP+Sfy9cJeVRaXDMU31i
ERXpqOF96S4FKEUMpzyVR9daPg2Jp0KHPRk9kc077v2WQjAKBggqhkjOPQQDAgNJ
ADBGAiEAzZTCv//R3g4GEbjs2GKbyCCw063opAsCOJgNshoSa4gCIQDKPHk7U6CI
qrlsh5e2aMHyAelgGSYEZhS6ZnxrfKEkKw==
-----END CERTIFICATE-----
