Certificate:
    Data:
        Version: 1 (0x0)
        Serial Number: 2 (0x2)
    Signature Algorithm: ecdsa-with-SHA256
        Issuer: C=US, CN=Test Intermediate CA
        Validity
            Not Before: Nov  9 16:04:12 2020 GMT
            Not After : Nov  9 16:04:12 2021 GMT
        Subject: C=US, CN=Test Leaf
        Subject Public Key Info:
            Public Key Algorithm: id-ecPublicKey
                Public-Key: (256 bit)
                pub: 
                    04:8f:64:47:2d:72:96:0f:3c:34:1a:0a:5f:e5:b4:
                    a7:29:56:4a:36:21:e7:f7:43:47:10:2e:9f:9c:da:
                    b4:3f:36:af:20:68:47:36:51:be:0d:cb:7d:b4:5c:
                    87:b2:2b:50:a9:69:31:f6:af:1d:18:2e:59:80:8a:
                    3d:73:ca:a6:4c
                ASN1 OID: prime256v1
                NIST CURVE: P-256
    Signature Algorithm: ecdsa-with-SHA256
         30:44:02:20:5a:56:2c:88:5d:e1:b3:e9:8a:60:39:a0:9d:87:
         92:1f:d5:8e:bf:18:6c:4b:46:06:11:7a:28:17:b3:e5:58:04:
         02:20:27:80:25:4c:c9:9a:fb:7c:6f:d9:46:e0:64:c9:c6:db:
         4a:0d:30:83:ee:91:98:51:ff:6a:92:64:00:14:c5:bd
-----BEGIN CERTIFICATE-----
MIIBMzCB2wIBAjAKBggqhkjOPQQDAjAsMQswCQYDVQQGEwJVUzEdMBsGA1UEAwwU
VGVzdCBJbnRlcm1lZGlhdGUgQ0EwHhcNMjAxMTA5MTYwNDEyWhcNMjExMTA5MTYw
NDEyWjAhMQswCQYDVQQGEwJVUzESMBAGA1UEAwwJVGVzdCBMZWFmMFkwEwYHKoZI
zj0CAQYIKoZIzj0DAQcDQgAEj2RHLXKWDzw0Ggpf5bSnKVZKNiHn90NHEC6fnNq0
PzavIGhHNlG+Dct9tFyHsitQqWkx9q8dGC5ZgIo9c8qmTDAKBggqhkjOPQQDAgNH
ADBEAiBaViyIXeGz6YpgOaCdh5If1Y6/GGxLRgYReigXs+VYBAIgJ4AlTMma+3xv
2UbgZMnG20oNMIPukZhR/2qSZAAUxb0=
-----END CERTIFICATE-----
