Certificate:
    Data:
        Version: 1 (0x0)
        Serial Number: 3 (0x3)
    Signature Algorithm: ecdsa-with-SHA256
        Issuer: C=US, CN=Test Intermediate CA
        Validity
            Not Before: Nov  9 16:05:52 2020 GMT
            Not After : Nov  9 16:05:52 2021 GMT
        Subject: C=US, CN=Test Leaf
        Subject Public Key Info:
            Public Key Algorithm: id-ecPublicKey
                Public-Key: (256 bit)
                pub: 
                    04:2d:70:77:5a:8c:a3:52:f0:a9:85:0e:3e:d0:67:
                    64:5a:8a:7c:05:51:d2:c4:b2:55:7f:39:3b:70:f0:
                    1f:2b:23:e3:95:ea:8c:fc:d5:64:dc:4d:d3:35:69:
                    3e:df:cf:44:dc:b6:54:b4:cb:fe:a1:57:77:d0:f0:
                    38:a0:f1:4b:48
                ASN1 OID: prime256v1
                NIST CURVE: P-256
    Signature Algorithm: ecdsa-with-SHA256
         30:45:02:21:00:a3:c2:25:fb:84:f4:4b:ad:e1:da:a4:b4:0a:
         61:53:d2:9f:48:ad:ef:22:df:4a:9d:0d:7d:9b:4f:61:dd:32:
         a2:02:20:55:c1:ed:2b:f9:87:b7:55:70:70:a0:71:0b:12:46:
         4d:fc:bd:fc:52:e3:c3:c6:f4:97:9f:45:f3:3b:c9:1b:28
-----BEGIN CERTIFICATE-----
MIIBNDCB2wIBAzAKBggqhkjOPQQDAjAsMQswCQYDVQQGEwJVUzEdMBsGA1UEAwwU
VGVzdCBJbnRlcm1lZGlhdGUgQ0EwHhcNMjAxMTA5MTYwNTUyWhcNMjExMTA5MTYw
NTUyWjAhMQswCQYDVQQGEwJVUzESMBAGA1UEAwwJVGVzdCBMZWFmMFkwEwYHKoZI
zj0CAQYIKoZIzj0DAQcDQgAELXB3WoyjUvCphQ4+0GdkWop8BVHSxLJVfzk7cPAf
KyPjleqM/NVk3E3TNWk+389E3LZUtMv+oVd30PA4oPFLSDAKBggqhkjOPQQDAgNI
ADBFAiEAo8Il+4T0S63h2qS0CmFT0p9Ire8i30qdDX2bT2HdMqICIFXB7Sv5h7dV
cHCgcQsSRk38vfxS48PG9JefRfM7yRso
-----END CERTIFICATE-----
