Certificate:
    Data:
        Version: 3 (0x2)
        Serial Number: 2 (0x2)
    Signature Algorithm: ecdsa-with-SHA256
        Issuer: C=US, CN=Test Root CA
        Validity
            Not Before: Nov  2 12:59:51 2020 GMT
            Not After : Nov  2 12:59:51 2023 GMT
        Subject: C=US, CN=Test Root CA
        Subject Public Key Info:
            Public Key Algorithm: id-ecPublicKey
                Public-Key: (384 bit)
                pub: 
                    04:34:c0:6a:20:38:be:0f:f3:1b:9f:73:31:33:90:
                    01:1d:a7:81:a5:b9:e9:60:d9:97:8e:1c:b8:dd:1d:
                    08:2c:e5:13:3d:8c:50:03:b8:bc:02:49:bf:b7:2f:
                    38:9e:2e:ed:2c:9e:1f:5c:ff:8b:54:a2:76:d0:75:
                    2e:80:7e:10:a6:50:a1:a2:57:dd:35:d6:7f:ef:04:
                    a7:d1:98:e4:d4:f8:e5:ed:0f:1b:70:75:42:03:b7:
                    c8:9d:0d:87:bc:f3:d9
                ASN1 OID: secp384r1
                NIST CURVE: P-384
        X509v3 extensions:
            X509v3 Basic Constraints: critical
                CA:TRUE
            X509v3 Key Usage: critical
                Certificate Sign
    Signature Algorithm: ecdsa-with-SHA256
         30:65:02:30:61:a0:83:c7:ea:08:75:03:a5:7e:c9:4e:b3:8d:
         a5:04:2d:bf:67:20:42:6f:45:d9:ea:30:92:47:0d:d8:b2:91:
         fc:8d:1c:b6:59:47:f7:be:4b:31:4f:a8:96:39:ba:31:02:31:
         00:8c:f3:52:f7:f4:54:ea:a9:14:11:18:bd:2c:31:45:2a:e6:
         5f:e1:d5:1d:5e:6e:9a:49:3d:bf:32:33:9f:5d:ca:28:80:c2:
         dc:4e:45:7d:89:c0:26:33:b6:f1:d9:df:93
-----BEGIN CERTIFICATE-----
MIIBlzCCAR2gAwIBAgIBAjAKBggqhkjOPQQDAjAkMQswCQYDVQQGEwJVUzEVMBMG
A1UEAwwMVGVzdCBSb290IENBMB4XDTIwMTEwMjEyNTk1MVoXDTIzMTEwMjEyNTk1
MVowJDELMAkGA1UEBhMCVVMxFTATBgNVBAMMDFRlc3QgUm9vdCBDQTB2MBAGByqG
SM49AgEGBSuBBAAiA2IABDTAaiA4vg/zG59zMTOQAR2ngaW56WDZl44cuN0dCCzl
Ez2MUAO4vAJJv7cvOJ4u7SyeH1z/i1SidtB1LoB+EKZQoaJX3TXWf+8Ep9GY5NT4
5e0PG3B1QgO3yJ0Nh7zz2aMjMCEwDwYDVR0TAQH/BAUwAwEB/zAOBgNVHQ8BAf8E
BAMCAgQwCgYIKoZIzj0EAwIDaAAwZQIwYaCDx+oIdQOlfslOs42lBC2/ZyBCb0XZ
6jCSRw3YspH8jRy2WUf3vksxT6iWOboxAjEAjPNS9/RU6qkUERi9LDFFKuZf4dUd
Xm6aST2/MjOfXcoogMLcTkV9icAmM7bx2d+T
-----END CERTIFICATE-----
