Certificate:
    Data:
        Version: 3 (0x2)
        Serial Number: 0 (0x0)
    Signature Algorithm: ecdsa-with-SHA256
        Issuer: C=US, CN=Test Root CA
        Validity
            Not Before: Nov  2 12:58:40 2020 GMT
            Not After : Nov  2 12:58:40 2023 GMT
        Subject: C=US, CN=Test Root CA
        Subject Public Key Info:
            Public Key Algorithm: id-ecPublicKey
                Public-Key: (384 bit)
                pub: 
                    04:72:0e:02:3d:02:71:94:5c:b2:40:7a:0d:84:58:
                    85:4d:86:55:d0:da:c6:64:51:ca:07:e3:05:1f:0e:
                    a4:a6:07:c7:3b:eb:0c:af:e1:9f:5e:70:b7:4f:46:
                    ee:01:fc:dc:2b:53:14:19:b4:37:60:db:ed:11:99:
                    5c:5d:ac:b3:ad:29:d9:7a:ac:a5:b7:39:ec:47:34:
                    a5:63:5d:7b:f7:c7:e5:10:12:66:db:f3:96:19:d1:
                    d5:32:76:64:f0:77:db
                ASN1 OID: secp384r1
                NIST CURVE: P-384
        X509v3 extensions:
            X509v3 Basic Constraints: critical
                CA:TRUE
            X509v3 Key Usage: critical
                Certificate Sign
    Signature Algorithm: ecdsa-with-SHA256
         30:65:02:30:5a:4d:c7:77:d7:6f:55:80:aa:da:8b:33:01:be:
         26:a2:fe:45:bb:ee:8b:5b:fd:56:2e:fe:35:06:c8:68:1c:c4:
         1f:54:50:2f:64:ed:02:3f:f0:06:4f:9b:54:01:c2:fa:02:31:
         00:d2:ac:45:af:1a:5d:48:75:3a:8c:6b:73:9b:e4:df:ba:95:
         3e:d1:1a:91:40:ad:f6:55:4a:82:03:04:4e:2f:30:5c:72:12:
         20:e2:d9:a8:4e:76:34:96:5c:d0:84:80:5e
-----BEGIN CERTIFICATE-----
MIIBlzCCAR2gAwIBAgIBADAKBggqhkjOPQQDAjAkMQswCQYDVQQGEwJVUzEVMBMG
A1UEAwwMVGVzdCBSb290IENBMB4XDTIwMTEwMjEyNTg0MFoXDTIzMTEwMjEyNTg0
MFowJDELMAkGA1UEBhMCVVMxFTATBgNVBAMMDFRlc3QgUm9vdCBDQTB2MBAGByqG
SM49AgEGBSuBBAAiA2IABHIOAj0CcZRcskB6DYRYhU2GVdDaxmRRygfjBR8OpKYH
xzvrDK/hn15wt09G7gH83CtTFBm0N2Db7RGZXF2ss60p2Xqspbc57Ec0pWNde/fH
5RASZtvzlhnR1TJ2ZPB326MjMCEwDwYDVR0TAQH/BAUwAwEB/zAOBgNVHQ8BAf8E
BAMCAgQwCgYIKoZIzj0EAwIDaAAwZQIwWk3Hd9dvVYCq2oszAb4mov5Fu+6LW/1W
Lv41BshoHMQfVFAvZO0CP/AGT5tUAcL6AjEA0qxFrxpdSHU6jGtzm+TfupU+0RqR
QK32VUqCAwROLzBcchIg4tmoTnY0llzQhIBe
-----END CERTIFICATE-----
