Certificate:
    Data:
        Version: 3 (0x2)
        Serial Number: 1 (0x1)
    Signature Algorithm: ecdsa-with-SHA256
        Issuer: C=US, CN=Test Root CA
        Validity
            Not Before: Nov  2 12:59:26 2020 GMT
            Not After : Nov  2 12:59:26 2023 GMT
        Subject: C=US, CN=Test Root CA
        Subject Public Key Info:
            Public Key Algorithm: id-ecPublicKey
                Public-Key: (384 bit)
                pub: 
                    04:b1:7d:b9:52:85:85:80:a6:86:0c:d1:36:b6:1e:
                    54:9b:a5:27:c2:53:bd:0c:f4:5f:82:ef:67:51:01:
                    51:08:1b:09:19:16:8c:d3:e6:2d:5f:49:f9:f1:6b:
                    36:5a:f4:67:75:df:4b:a8:94:f7:8d:bc:c7:36:bb:
                    b5:ea:3c:4f:f5:d3:97:49:e4:f9:24:92:26:ea:6a:
                    47:94:49:5b:eb:a6:06:5f:21:52:40:22:db:77:6f:
                    98:cc:2c:5a:bd:cb:04
                ASN1 OID: secp384r1
                NIST CURVE: P-384
        X509v3 extensions:
            X509v3 Basic Constraints: critical
                CA:TRUE
            X509v3 Key Usage: critical
                Certificate Sign
    Signature Algorithm: ecdsa-with-SHA256
         30:64:02:30:42:04:bb:14:c9:a7:7b:e5:b2:54:d8:45:d9:0c:
         54:72:41:f0:8e:00:b6:3a:02:fb:df:da:15:fe:72:dd:a7:50:
         2a:8c:2c:9d:ad:b8:ca:09:06:37:a7:5f:ec:f3:5e:c2:02:30:
         1f:d1:c9:58:be:79:83:74:6f:69:18:7e:76:56:87:09:5d:ae:
         fa:a5:6f:67:a7:7b:00:78:b4:bd:7f:46:bb:e4:89:0b:44:93:
         ac:e2:03:4d:a7:e5:88:59:2e:6f:82:e0
-----BEGIN CERTIFICATE-----
MIIBljCCAR2gAwIBAgIBATAKBggqhkjOPQQDAjAkMQswCQYDVQQGEwJVUzEVMBMG
A1UEAwwMVGVzdCBSb290IENBMB4XDTIwMTEwMjEyNTkyNloXDTIzMTEwMjEyNTky
NlowJDELMAkGA1UEBhMCVVMxFTATBgNVBAMMDFRlc3QgUm9vdCBDQTB2MBAGByqG
SM49AgEGBSuBBAAiA2IABLF9uVKFhYCmhgzRNrYeVJulJ8JTvQz0X4LvZ1EBUQgb
CRkWjNPmLV9J+fFrNlr0Z3XfS6iU9428xza7teo8T/XTl0nk+SSSJupqR5RJW+um
Bl8hUkAi23dvmMwsWr3LBKMjMCEwDwYDVR0TAQH/BAUwAwEB/zAOBgNVHQ8BAf8E
BAMCAgQwCgYIKoZIzj0EAwIDZwAwZAIwQgS7FMmne+WyVNhF2QxUckHwjgC2OgL7
39oV/nLdp1AqjCydrbjKCQY3p1/s817CAjAf0clYvnmDdG9pGH52VocJXa76pW9n
p3sAeLS9f0a75IkLRJOs4gNNp+WIWS5vguA=
-----END CERTIFICATE-----
