Certificate:
    Data:
        Version: 3 (0x2)
        Serial Number: 3 (0x3)
    Signature Algorithm: ecdsa-with-SHA256
        Issuer: C=US, CN=Test Root CA
        Validity
            Not Before: Nov  2 13:02:16 2020 GMT
            Not After : Nov  2 13:02:16 2022 GMT
        Subject: C=US, CN=Test Intermediate CA
        Subject Public Key Info:
            Public Key Algorithm: id-ecPublicKey
                Public-Key: (256 bit)
                pub: 
                    04:a7:66:91:4c:11:31:95:9b:22:4c:6b:69:75:b4:
                    79:79:f6:f9:c7:55:f1:5e:c0:3c:3e:34:6f:83:50:
                    2f:ac:d4:87:cd:41:d8:7e:1a:b1:61:73:f9:04:4f:
                    8b:db:85:f5:f6:6f:f2:b4:e7:19:0b:de:54:50:ac:
                    26:2e:a4:f9:7c
                ASN1 OID: prime256v1
                NIST CURVE: P-256
        X509v3 extensions:
            X509v3 Basic Constraints: critical
                CA:TRUE
            X509v3 Key Usage: critical
                Certificate Sign
    Signature Algorithm: ecdsa-with-SHA256
         30:65:02:31:00:dc:0b:43:ca:11:3d:38:d0:86:8c:22:b1:9c:
         36:ad:67:c8:9b:47:fe:34:e0:a8:2a:9e:0c:98:81:eb:63:81:
         c4:a7:2f:b0:35:2f:fc:b0:d1:f5:ac:26:38:bd:32:c6:c2:02:
         30:46:32:24:40:ca:bb:90:11:96:58:50:e5:ad:5f:81:5d:ea:
         5c:89:88:dc:86:03:fb:39:d8:9c:f1:21:4d:44:43:b6:4d:8f:
         8a:dd:76:fc:ab:9a:32:7d:da:42:bb:0f:d0
-----BEGIN CERTIFICATE-----
MIIBgjCCAQigAwIBAgIBAzAKBggqhkjOPQQDAjAkMQswCQYDVQQGEwJVUzEVMBMG
A1UEAwwMVGVzdCBSb290IENBMB4XDTIwMTEwMjEzMDIxNloXDTIyMTEwMjEzMDIx
NlowLDELMAkGA1UEBhMCVVMxHTAbBgNVBAMMFFRlc3QgSW50ZXJtZWRpYXRlIENB
MFkwEwYHKoZIzj0CAQYIKoZIzj0DAQcDQgAEp2aRTBExlZsiTGtpdbR5efb5x1Xx
XsA8PjRvg1AvrNSHzUHYfhqxYXP5BE+L24X19m/ytOcZC95UUKwmLqT5fKMjMCEw
DwYDVR0TAQH/BAUwAwEB/zAOBgNVHQ8BAf8EBAMCAgQwCgYIKoZIzj0EAwIDaAAw
ZQIxANwLQ8oRPTjQhowisZw2rWfIm0f+NOCoKp4MmIHrY4HEpy+wNS/8sNH1rCY4
vTLGwgIwRjIkQMq7kBGWWFDlrV+BXepciYjchgP7Odic8SFNREO2TY+K3Xb8q5oy
fdpCuw/Q
-----END CERTIFICATE-----
