Certificate:
    Data:
        Version: 3 (0x2)
        Serial Number: 4 (0x4)
    Signature Algorithm: ecdsa-with-SHA256
        Issuer: C=US, CN=Test Root CA
        Validity
            Not Before: Nov  2 15:24:12 2020 GMT
            Not After : Nov  2 15:24:12 2023 GMT
        Subject: C=US, CN=Test Root CA
        Subject Public Key Info:
            Public Key Algorithm: id-ecPublicKey
                Public-Key: (384 bit)
                pub: 
                    04:20:5e:e9:d7:ba:53:6e:dc:a7:c1:cf:2d:14:0d:
                    e6:11:ec:1c:bb:70:ff:b8:07:eb:de:0a:41:97:07:
                    9f:37:6b:6b:50:2e:d1:69:e3:0a:d2:78:48:25:94:
                    cd:e4:23:77:aa:d0:20:7f:08:32:0a:d0:a4:bd:39:
                    21:20:28:f5:2f:bf:68:42:7c:a0:09:7e:c2:ad:45:
                    fb:bd:4f:1e:e5:ea:e4:15:0d:49:4d:e0:29:76:42:
                    7a:b6:56:f4:f5:c6:a9
                ASN1 OID: secp384r1
                NIST CURVE: P-384
        X509v3 extensions:
            X509v3 Basic Constraints: critical
                CA:TRUE
            X509v3 Key Usage: critical
                Certificate Sign
    Signature Algorithm: ecdsa-with-SHA256
         30:66:02:31:00:ff:dd:c1:61:80:8c:e7:7f:b5:c5:fd:18:d9:
         3e:27:1c:fe:cf:53:3a:9e:71:88:63:74:c8:23:f1:53:28:48:
         30:14:1c:3d:1e:0b:8b:bf:35:1a:3e:da:1d:85:76:0f:85:02:
         31:00:f5:f7:c0:fb:bf:47:cf:64:c7:f9:6a:8c:34:dd:ac:b5:
         06:2f:b3:af:eb:ba:92:c5:ae:a6:88:ab:a6:3f:01:1f:fb:88:
         ed:2b:63:fa:09:a4:56:80:fe:ae:ca:ad:89:e0
-----BEGIN CERTIFICATE-----
MIIBmDCCAR2gAwIBAgIBBDAKBggqhkjOPQQDAjAkMQswCQYDVQQGEwJVUzEVMBMG
A1UEAwwMVGVzdCBSb290IENBMB4XDTIwMTEwMjE1MjQxMloXDTIzMTEwMjE1MjQx
MlowJDELMAkGA1UEBhMCVVMxFTATBgNVBAMMDFRlc3QgUm9vdCBDQTB2MBAGByqG
SM49AgEGBSuBBAAiA2IABCBe6de6U27cp8HPLRQN5hHsHLtw/7gH694KQZcHnzdr
a1Au0WnjCtJ4SCWUzeQjd6rQIH8IMgrQpL05ISAo9S+/aEJ8oAl+wq1F+71PHuXq
5BUNSU3gKXZCerZW9PXGqaMjMCEwDwYDVR0TAQH/BAUwAwEB/zAOBgNVHQ8BAf8E
BAMCAgQwCgYIKoZIzj0EAwIDaQAwZgIxAP/dwWGAjOd/tcX9GNk+Jxz+z1M6nnGI
Y3TII/FTKEgwFBw9HguLvzUaPtodhXYPhQIxAPX3wPu/R89kx/lqjDTdrLUGL7Ov
67qSxa6miKumPwEf+4jtK2P6CaRWgP6uyq2J4A==
-----END CERTIFICATE-----
