Certificate:
    Data:
        Version: 3 (0x2)
        Serial Number: 5 (0x5)
    Signature Algorithm: ecdsa-with-SHA256
        Issuer: C=US, CN=Test Root CA
        Validity
            Not Before: Nov  2 15:25:14 2020 GMT
            Not After : Nov  2 15:25:14 2023 GMT
        Subject: C=US, CN=Test Root CA
        Subject Public Key Info:
            Public Key Algorithm: id-ecPublicKey
                Public-Key: (384 bit)
                pub: 
                    04:16:b6:e7:92:54:d9:57:d5:cb:87:6e:e5:95:1e:
                    3e:b3:a2:f4:d7:3b:8f:52:1b:d2:20:ff:68:fb:06:
                    03:92:17:0d:80:ab:ca:fa:2d:2b:02:84:bc:5e:f2:
                    bb:5d:6c:94:62:c9:c2:29:0d:cd:9d:b3:59:69:e9:
                    a3:0b:24:fa:70:ba:9e:ac:23:6b:d4:9d:85:22:e1:
                    3a:d0:f5:48:d9:48:7f:eb:da:04:37:34:e1:b4:c5:
                    ce:52:f0:62:15:1e:5b
                ASN1 OID: secp384r1
                NIST CURVE: P-384
        X509v3 extensions:
            X509v3 Basic Constraints: critical
                CA:TRUE
            X509v3 Key Usage: critical
                Certificate Sign
    Signature Algorithm: ecdsa-with-SHA256
         30:64:02:30:25:c8:8a:09:de:f1:be:30:a2:73:6a:9b:32:c1:
         0d:fa:88:09:f7:56:fc:9e:50:74:48:9c:a8:4d:a3:20:54:a2:
         c2:bc:03:8c:76:3e:45:2b:82:ba:78:2d:b3:59:d5:91:02:30:
         2c:cd:f7:a7:12:70:d2:2f:11:56:38:c1:1a:ef:ec:0d:70:6c:
         63:7e:41:33:b0:d4:da:1d:e0:a4:60:ce:c1:4a:2a:97:f4:12:
         3d:09:0f:20:f1:a6:02:90:78:9f:67:ec
-----BEGIN CERTIFICATE-----
MIIBljCCAR2gAwIBAgIBBTAKBggqhkjOPQQDAjAkMQswCQYDVQQGEwJVUzEVMBMG
A1UEAwwMVGVzdCBSb290IENBMB4XDTIwMTEwMjE1MjUxNFoXDTIzMTEwMjE1MjUx
NFowJDELMAkGA1UEBhMCVVMxFTATBgNVBAMMDFRlc3QgUm9vdCBDQTB2MBAGByqG
SM49AgEGBSuBBAAiA2IABBa255JU2VfVy4du5ZUePrOi9Nc7j1Ib0iD/aPsGA5IX
DYCryvotKwKEvF7yu11slGLJwikNzZ2zWWnpowsk+nC6nqwja9SdhSLhOtD1SNlI
f+vaBDc04bTFzlLwYhUeW6MjMCEwDwYDVR0TAQH/BAUwAwEB/zAOBgNVHQ8BAf8E
BAMCAgQwCgYIKoZIzj0EAwIDZwAwZAIwJciKCd7xvjCic2qbMsEN+ogJ91b8nlB0
SJyoTaMgVKLCvAOMdj5FK4K6eC2zWdWRAjAszfenEnDSLxFWOMEa7+wNcGxjfkEz
sNTaHeCkYM7BSiqX9BI9CQ8g8aYCkHifZ+w=
-----END CERTIFICATE-----
