Certificate:
    Data:
        Version: 3 (0x2)
        Serial Number: 6 (0x6)
    Signature Algorithm: ecdsa-with-SHA256
        Issuer: C=US, CN=Test Root CA
        Validity
            Not Before: Nov  2 15:25:17 2020 GMT
            Not After : Nov  2 15:25:17 2022 GMT
        Subject: C=US, CN=Test Intermediate CA
        Subject Public Key Info:
            Public Key Algorithm: id-ecPublicKey
                Public-Key: (256 bit)
                pub: 
                    04:f3:c0:46:9a:04:33:f1:38:bf:27:af:a0:3f:43:
                    c8:63:9c:af:5b:3e:70:cd:8f:ab:01:a9:4e:df:b3:
                    08:a1:0f:0c:f2:ae:99:e3:74:09:f3:f9:b4:30:eb:
                    af:a9:e8:78:bd:d8:4b:a6:2b:70:62:81:71:0f:59:
                    4a:f5:40:93:8e
                ASN1 OID: prime256v1
                NIST CURVE: P-256
        X509v3 extensions:
            X509v3 Basic Constraints: critical
                CA:TRUE
            X509v3 Key Usage: critical
                Certificate Sign
    Signature Algorithm: ecdsa-with-SHA256
         30:64:02:30:64:af:ff:60:6e:19:16:b1:bd:0e:77:c3:2c:82:
         93:6a:04:40:b2:e8:73:ae:c2:c9:42:f3:15:e6:00:9d:3b:f5:
         96:0e:4f:e3:0c:f0:0a:b8:12:fd:0a:81:4c:f3:9a:a0:02:30:
         19:1b:fa:e6:ec:2a:1a:87:e9:57:6c:40:62:73:1a:b2:85:27:
         82:94:60:f4:a0:05:db:c1:66:d8:5c:89:31:33:96:56:16:7b:
         40:ac:6e:f4:a1:65:b5:64:19:b3:5c:18
-----BEGIN CERTIFICATE-----
MIIBgTCCAQigAwIBAgIBBjAKBggqhkjOPQQDAjAkMQswCQYDVQQGEwJVUzEVMBMG
A1UEAwwMVGVzdCBSb290IENBMB4XDTIwMTEwMjE1MjUxN1oXDTIyMTEwMjE1MjUx
N1owLDELMAkGA1UEBhMCVVMxHTAbBgNVBAMMFFRlc3QgSW50ZXJtZWRpYXRlIENB
MFkwEwYHKoZIzj0CAQYIKoZIzj0DAQcDQgAE88BGmgQz8Ti/J6+gP0PIY5yvWz5w
zY+rAalO37MIoQ8M8q6Z43QJ8/m0MOuvqeh4vdhLpitwYoFxD1lK9UCTjqMjMCEw
DwYDVR0TAQH/BAUwAwEB/zAOBgNVHQ8BAf8EBAMCAgQwCgYIKoZIzj0EAwIDZwAw
ZAIwZK//YG4ZFrG9DnfDLIKTagRAsuhzrsLJQvMV5gCdO/WWDk/jDPAKuBL9CoFM
85qgAjAZG/rm7Coah+lXbEBicxqyhSeClGD0oAXbwWbYXIkxM5ZWFntArG70oWW1
ZBmzXBg=
-----END CERTIFICATE-----
