Certificate:
    Data:
        Version: 3 (0x2)
        Serial Number: 7 (0x7)
    Signature Algorithm: ecdsa-with-SHA256
        Issuer: C=US, CN=Test Root CA
        Validity
            Not Before: Nov  9 16:04:09 2020 GMT
            Not After : Nov  9 16:04:09 2023 GMT
        Subject: C=US, CN=Test Root CA
        Subject Public Key Info:
            Public Key Algorithm: id-ecPublicKey
                Public-Key: (384 bit)
                pub: 
                    04:5f:51:b0:68:1e:53:9f:a8:f8:c2:1c:5a:94:a9:
                    0b:78:7d:cf:29:de:8d:fd:f6:11:c1:3e:59:67:88:
                    6a:b4:f8:2e:ae:0b:9b:3c:a1:eb:2d:4e:e6:24:19:
                    c0:5e:a5:c5:72:4d:36:0d:f8:34:35:78:02:44:a8:
                    aa:24:9b:2d:21:46:b9:73:62:fb:4f:c7:8e:bd:1a:
                    61:d4:4b:db:5e:cd:5d:52:75:25:42:9e:35:f7:cd:
                    10:4e:45:c7:77:fc:cc
                ASN1 OID: secp384r1
                NIST CURVE: P-384
        X509v3 extensions:
            X509v3 Basic Constraints: critical
                CA:TRUE
            X509v3 Key Usage: critical
                Certificate Sign
    Signature Algorithm: ecdsa-with-SHA256
         30:66:02:31:00:c5:f1:30:5d:d3:4b:b4:86:34:d4:84:18:f9:
         da:40:c4:0d:68:b3:d4:99:ee:20:53:36:68:01:f4:01:24:fe:
         71:33:b7:ef:e2:2f:21:5a:9d:e9:b1:66:9f:6a:57:0c:ae:02:
         31:00:d9:de:5a:f1:fb:66:60:2b:df:bd:c5:34:10:84:2b:31:
         8c:6d:7d:03:60:87:c4:ee:41:8f:94:22:40:36:bb:04:94:97:
         af:21:df:4d:cb:5f:22:10:76:a2:85:f5:05:8b
-----BEGIN CERTIFICATE-----
MIIBmDCCAR2gAwIBAgIBBzAKBggqhkjOPQQDAjAkMQswCQYDVQQGEwJVUzEVMBMG
A1UEAwwMVGVzdCBSb290IENBMB4XDTIwMTEwOTE2MDQwOVoXDTIzMTEwOTE2MDQw
OVowJDELMAkGA1UEBhMCVVMxFTATBgNVBAMMDFRlc3QgUm9vdCBDQTB2MBAGByqG
SM49AgEGBSuBBAAiA2IABF9RsGgeU5+o+MIcWpSpC3h9zynejf32EcE+WWeIarT4
Lq4Lmzyh6y1O5iQZwF6lxXJNNg34NDV4AkSoqiSbLSFGuXNi+0/Hjr0aYdRL217N
XVJ1JUKeNffNEE5Fx3f8zKMjMCEwDwYDVR0TAQH/BAUwAwEB/zAOBgNVHQ8BAf8E
BAMCAgQwCgYIKoZIzj0EAwIDaQAwZgIxAMXxMF3TS7SGNNSEGPnaQMQNaLPUme4g
UzZoAfQBJP5xM7fv4i8hWp3psWafalcMrgIxANneWvH7ZmAr373FNBCEKzGMbX0D
YIfE7kGPlCJANrsElJevId9Ny18iEHaihfUFiw==
-----END CERTIFICATE-----
