Certificate:
    Data:
        Version: 3 (0x2)
        Serial Number: 8 (0x8)
    Signature Algorithm: ecdsa-with-SHA256
        Issuer: C=US, CN=Test Root CA
        Validity
            Not Before: Nov  9 16:04:11 2020 GMT
            Not After : Nov  9 16:04:11 2022 GMT
        Subject: C=US, CN=Test Intermediate CA
        Subject Public Key Info:
            Public Key Algorithm: id-ecPublicKey
                Public-Key: (256 bit)
                pub: 
                    04:76:e8:5d:7e:41:4b:fa:8c:f3:37:63:51:53:06:
                    4a:e7:da:03:8c:9a:a9:03:cb:18:3f:70:cb:98:9c:
                    65:f8:6f:b8:10:09:2e:0b:8f:d2:01:b3:cf:e7:21:
                    28:ed:69:1b:01:4b:db:1e:f7:c2:a1:05:36:92:e0:
                    8a:c4:68:9d:01
                ASN1 OID: prime256v1
                NIST CURVE: P-256
        X509v3 extensions:
            X509v3 Basic Constraints: critical
                CA:TRUE
            X509v3 Key Usage: critical
                Certificate Sign
    Signature Algorithm: ecdsa-with-SHA256
         30:64:02:30:53:35:5d:ce:69:9c:b4:ed:48:f9:83:3c:71:5b:
         9f:0e:17:82:89:cd:38:80:3b:2b:74:28:2a:29:5c:22:27:91:
         7b:7e:82:a5:9c:cd:19:e5:07:de:93:c0:cc:33:21:ce:02:30:
         79:6f:20:b1:09:0b:d5:05:66:7b:13:f2:a1:73:91:4f:5f:2b:
         76:19:29:23:2e:ef:fd:28:7b:20:aa:aa:76:94:df:cb:1d:e8:
         32:dd:fc:0d:be:d1:4c:f3:0b:1b:b9:f8
-----BEGIN CERTIFICATE-----
MIIBgTCCAQigAwIBAgIBCDAKBggqhkjOPQQDAjAkMQswCQYDVQQGEwJVUzEVMBMG
A1UEAwwMVGVzdCBSb290IENBMB4XDTIwMTEwOTE2MDQxMVoXDTIyMTEwOTE2MDQx
MVowLDELMAkGA1UEBhMCVVMxHTAbBgNVBAMMFFRlc3QgSW50ZXJtZWRpYXRlIENB
MFkwEwYHKoZIzj0CAQYIKoZIzj0DAQcDQgAEduhdfkFL+ozzN2NRUwZK59oDjJqp
A8sYP3DLmJxl+G+4EAkuC4/SAbPP5yEo7WkbAUvbHvfCoQU2kuCKxGidAaMjMCEw
DwYDVR0TAQH/BAUwAwEB/zAOBgNVHQ8BAf8EBAMCAgQwCgYIKoZIzj0EAwIDZwAw
ZAIwUzVdzmmctO1I+YM8cVufDheCic04gDsrdCgqKVwiJ5F7foKlnM0Z5Qfek8DM
MyHOAjB5byCxCQvVBWZ7E/Khc5FPXyt2GSkjLu/9KHsgqqp2lN/LHegy3fwNvtFM
8wsbufg=
-----END CERTIFICATE-----
