Certificate:
    Data:
        Version: 3 (0x2)
        Serial Number: 9 (0x9)
    Signature Algorithm: ecdsa-with-SHA256
        Issuer: C=US, CN=Test Root CA
        Validity
            Not Before: Nov  9 16:05:49 2020 GMT
            Not After : Nov  9 16:05:49 2023 GMT
        Subject: C=US, CN=Test Root CA
        Subject Public Key Info:
            Public Key Algorithm: id-ecPublicKey
                Public-Key: (384 bit)
                pub: 
                    04:f3:e1:6d:92:a9:f4:24:60:c4:03:00:91:d5:f1:
                    66:35:bf:75:b7:59:00:bb:43:eb:60:6e:3d:6a:63:
                    e3:bb:45:d5:cf:ac:31:84:97:3b:3a:2b:50:e1:4f:
                    73:df:83:80:c3:85:06:5e:e5:cc:4d:40:a7:24:0e:
                    b9:2a:8d:f8:27:53:32:b5:cf:0b:1b:81:9d:3e:3b:
                    40:1a:22:f5:a7:1e:a7:9f:34:f5:02:a6:9c:08:03:
                    9e:cf:47:e1:99:a6:29
                ASN1 OID: secp384r1
                NIST CURVE: P-384
        X509v3 extensions:
            X509v3 Basic Constraints: critical
                CA:TRUE
            X509v3 Key Usage: critical
                Certificate Sign
    Signature Algorithm: ecdsa-with-SHA256
         30:65:02:30:67:67:1d:ad:04:87:7f:56:a0:f0:f7:5b:ef:0c:
         9e:37:05:1f:16:45:41:68:bf:8e:2f:89:d1:25:83:f8:de:52:
         8e:10:db:c8:21:7f:b2:5d:60:e5:42:e5:9c:7b:7e:c2:02:31:
         00:d5:52:ae:cc:2a:66:e8:0c:e6:a6:ce:98:e3:c3:46:cd:af:
         d4:6b:b8:6a:f0:d6:86:11:bd:63:34:db:2d:8f:dd:2c:6a:46:
         0d:ee:81:53:7a:62:15:0f:9c:f4:27:7d:8d
-----BEGIN CERTIFICATE-----
MIIBlzCCAR2gAwIBAgIBCTAKBggqhkjOPQQDAjAkMQswCQYDVQQGEwJVUzEVMBMG
A1UEAwwMVGVzdCBSb290IENBMB4XDTIwMTEwOTE2MDU0OVoXDTIzMTEwOTE2MDU0
OVowJDELMAkGA1UEBhMCVVMxFTATBgNVBAMMDFRlc3QgUm9vdCBDQTB2MBAGByqG
SM49AgEGBSuBBAAiA2IABPPhbZKp9CRgxAMAkdXxZjW/dbdZALtD62BuPWpj47tF
1c+sMYSXOzorUOFPc9+DgMOFBl7lzE1ApyQOuSqN+CdTMrXPCxuBnT47QBoi9ace
p5809QKmnAgDns9H4ZmmKaMjMCEwDwYDVR0TAQH/BAUwAwEB/zAOBgNVHQ8BAf8E
BAMCAgQwCgYIKoZIzj0EAwIDaAAwZQIwZ2cdrQSHf1ag8Pdb7wyeNwUfFkVBaL+O
L4nRJYP43lKOENvIIX+yXWDlQuWce37CAjEA1VKuzCpm6Azmps6Y48NGza/Ua7hq
8NaGEb1jNNstj90sakYN7oFTemIVD5z0J32N
-----END CERTIFICATE-----
