Certificate:
    Data:
        Version: 3 (0x2)
        Serial Number: 10 (0xa)
    Signature Algorithm: ecdsa-with-SHA256
        Issuer: C=US, CN=Test Root CA
        Validity
            Not Before: Nov  9 16:05:51 2020 GMT
            Not After : Nov  9 16:05:51 2022 GMT
        Subject: C=US, CN=Test Intermediate CA
        Subject Public Key Info:
            Public Key Algorithm: id-ecPublicKey
                Public-Key: (256 bit)
                pub: 
                    04:d1:20:13:3d:c9:8d:ac:6c:d4:b8:b6:3c:33:f2:
                    e6:b6:11:d0:16:69:3f:be:c6:6a:3a:ab:21:22:98:
                    b0:01:7b:e7:d9:7c:bd:cf:e9:49:28:b8:a6:2c:ca:
                    60:1f:d5:f6:c7:92:be:3d:af:c3:9c:c3:66:98:ba:
                    63:22:d8:61:cc
                ASN1 OID: prime256v1
                NIST CURVE: P-256
        X509v3 extensions:
            X509v3 Basic Constraints: critical
                CA:TRUE
            X509v3 Key Usage: critical
                Certificate Sign
    Signature Algorithm: ecdsa-with-SHA256
         30:66:02:31:00:d4:10:21:36:b9:bc:7e:b8:0b:fb:9a:55:fc:
         8a:fa:09:99:46:eb:6a:8b:1f:a6:74:cc:33:70:8f:13:0d:f7:
         65:7e:ef:2c:b7:bc:e5:e4:19:2e:54:81:9f:8d:15:a4:02:02:
         31:00:af:da:30:b3:2c:4e:7e:db:c1:61:4d:09:5c:10:2c:ac:
         58:43:0c:d3:67:ce:04:6a:1d:85:c1:e7:18:5e:6f:3b:9b:e3:
         f0:43:17:1e:1a:ac:be:c0:dd:72:e2:5c:0c:c4
-----BEGIN CERTIFICATE-----
MIIBgzCCAQigAwIBAgIBCjAKBggqhkjOPQQDAjAkMQswCQYDVQQGEwJVUzEVMBMG
A1UEAwwMVGVzdCBSb290IENBMB4XDTIwMTEwOTE2MDU1MVoXDTIyMTEwOTE2MDU1
MVowLDELMAkGA1UEBhMCVVMxHTAbBgNVBAMMFFRlc3QgSW50ZXJtZWRpYXRlIENB
MFkwEwYHKoZIzj0CAQYIKoZIzj0DAQcDQgAE0SATPcmNrGzUuLY8M/LmthHQFmk/
vsZqOqshIpiwAXvn2Xy9z+lJKLimLMpgH9X2x5K+Pa/DnMNmmLpjIthhzKMjMCEw
DwYDVR0TAQH/BAUwAwEB/zAOBgNVHQ8BAf8EBAMCAgQwCgYIKoZIzj0EAwIDaQAw
ZgIxANQQITa5vH64C/uaVfyK+gmZRutqix+mdMwzcI8TDfdlfu8st7zl5BkuVIGf
jRWkAgIxAK/aMLMsTn7bwWFNCVwQLKxYQwzTZ84Eah2FwecYXm87m+PwQxceGqy+
wN1y4lwMxA==
-----END CERTIFICATE-----
